target datalayout = "e-m:e-p270:32:32-p271:32:32-p272:64:64-i64:64-i128:128-f80:128-n8:16:32:64-S128"
target triple = "x86_64-pc-linux-gnu"

%"class.cv::Mat_" = type { %"class.cv::Mat" }
%"class.cv::Mat" = type { i32, i32, i32, i32, ptr, ptr, ptr, ptr, ptr, ptr, %"struct.cv::MatSize", %"struct.cv::MatStep" }
%"struct.cv::MatSize" = type { ptr }
%"struct.cv::MatStep" = type { ptr, [2 x i64] }
%"class.cv::Range" = type { i32, i32 }
%"class.cv::ParallelLoopBody" = type { ptr }
%"struct.cv::optflow::CenteredGradientBody" = type { %"class.cv::ParallelLoopBody", %"class.cv::Mat_", %"class.cv::Mat_", %"class.cv::Mat_" }

; Function Attrs: inlinehint mustprogress nounwind uwtable
define linkonce_odr hidden noundef ptr @_ZN2cv4Mat_IfEixEi(ptr noundef nonnull align 8 dereferenceable(96) %0, i32 noundef %1) #6 comdat align 2 {
  %3 = alloca ptr, align 8
  %4 = alloca i32, align 4
  store ptr %0, ptr %3, align 8, !tbaa !86
  store i32 %1, ptr %4, align 4, !tbaa !55
  %5 = load ptr, ptr %3, align 8
  %6 = getelementptr inbounds nuw %"class.cv::Mat", ptr %5, i32 0, i32 4
  %7 = load ptr, ptr %6, align 8, !tbaa !112
  %8 = load i32, ptr %4, align 4, !tbaa !55
  %9 = sext i32 %8 to i64
  %10 = getelementptr inbounds nuw %"class.cv::Mat", ptr %5, i32 0, i32 11
  %11 = getelementptr inbounds nuw %"struct.cv::MatStep", ptr %10, i32 0, i32 0
  %12 = load ptr, ptr %11, align 8, !tbaa !113
  %13 = getelementptr inbounds i64, ptr %12, i64 0
  %14 = load i64, ptr %13, align 8, !tbaa !81
  %15 = mul i64 %9, %14
  %16 = getelementptr inbounds nuw i8, ptr %7, i64 %15
  ret ptr %16
}

; Function Attrs: inlinehint mustprogress nounwind uwtable
define linkonce_odr hidden noundef ptr @_ZNK2cv4Mat_IfEixEi(ptr noundef nonnull align 8 dereferenceable(96) %0, i32 noundef %1) #6 comdat align 2 {
  %3 = alloca ptr, align 8
  %4 = alloca i32, align 4
  store ptr %0, ptr %3, align 8, !tbaa !86
  store i32 %1, ptr %4, align 4, !tbaa !55
  %5 = load ptr, ptr %3, align 8
  %6 = getelementptr inbounds nuw %"class.cv::Mat", ptr %5, i32 0, i32 4
  %7 = load ptr, ptr %6, align 8, !tbaa !112
  %8 = load i32, ptr %4, align 4, !tbaa !55
  %9 = sext i32 %8 to i64
  %10 = getelementptr inbounds nuw %"class.cv::Mat", ptr %5, i32 0, i32 11
  %11 = getelementptr inbounds nuw %"struct.cv::MatStep", ptr %10, i32 0, i32 0
  %12 = load ptr, ptr %11, align 8, !tbaa !113
  %13 = getelementptr inbounds i64, ptr %12, i64 0
  %14 = load i64, ptr %13, align 8, !tbaa !81
  %15 = mul i64 %9, %14
  %16 = getelementptr inbounds nuw i8, ptr %7, i64 %15
  ret ptr %16
}

; Function Attrs: mustprogress uwtable
define hidden void @_ZNK2cv7optflow20CenteredGradientBodyclERKNS_5RangeE(ptr noundef nonnull align 8 dereferenceable(296) %0, ptr noundef nonnull align 4 dereferenceable(8) %1) unnamed_addr #4 align 2 {
  %3 = alloca ptr, align 8
  %4 = alloca ptr, align 8
  %5 = alloca i32, align 4
  %6 = alloca i32, align 4
  %7 = alloca i32, align 4
  %8 = alloca ptr, align 8
  %9 = alloca ptr, align 8
  %10 = alloca ptr, align 8
  %11 = alloca ptr, align 8
  %12 = alloca ptr, align 8
  %13 = alloca i32, align 4
  store ptr %0, ptr %3, align 8, !tbaa !114
  store ptr %1, ptr %4, align 8, !tbaa !103
  %14 = load ptr, ptr %3, align 8
  call void @llvm.lifetime.start.p0(i64 4, ptr %5) #3
  %15 = getelementptr inbounds nuw %"struct.cv::optflow::CenteredGradientBody", ptr %14, i32 0, i32 1
  %16 = getelementptr inbounds nuw %"class.cv::Mat", ptr %15, i32 0, i32 3
  %17 = load i32, ptr %16, align 4, !tbaa !56
  %18 = sub nsw i32 %17, 1
  store i32 %18, ptr %5, align 4, !tbaa !55
  call void @llvm.lifetime.start.p0(i64 4, ptr %6) #3
  %19 = load ptr, ptr %4, align 8, !tbaa !103
  %20 = getelementptr inbounds nuw %"class.cv::Range", ptr %19, i32 0, i32 0
  %21 = load i32, ptr %20, align 4, !tbaa !105
  store i32 %21, ptr %6, align 4, !tbaa !55
  br label %22

22:                                               ; preds = %91, %2
  %23 = load i32, ptr %6, align 4, !tbaa !55
  %24 = load ptr, ptr %4, align 8, !tbaa !103
  %25 = getelementptr inbounds nuw %"class.cv::Range", ptr %24, i32 0, i32 1
  %26 = load i32, ptr %25, align 4, !tbaa !107
  %27 = icmp slt i32 %23, %26
  br i1 %27, label %29, label %28

28:                                               ; preds = %22
  store i32 2, ptr %7, align 4
  call void @llvm.lifetime.end.p0(i64 4, ptr %6) #3
  br label %94

29:                                               ; preds = %22
  call void @llvm.lifetime.start.p0(i64 8, ptr %8) #3
  %30 = getelementptr inbounds nuw %"struct.cv::optflow::CenteredGradientBody", ptr %14, i32 0, i32 1
  %31 = load i32, ptr %6, align 4, !tbaa !55
  %32 = sub nsw i32 %31, 1
  %33 = call noundef ptr @_ZNK2cv4Mat_IfEixEi(ptr noundef nonnull align 8 dereferenceable(96) %30, i32 noundef %32)
  store ptr %33, ptr %8, align 8, !tbaa !108
  call void @llvm.lifetime.start.p0(i64 8, ptr %9) #3
  %34 = getelementptr inbounds nuw %"struct.cv::optflow::CenteredGradientBody", ptr %14, i32 0, i32 1
  %35 = load i32, ptr %6, align 4, !tbaa !55
  %36 = call noundef ptr @_ZNK2cv4Mat_IfEixEi(ptr noundef nonnull align 8 dereferenceable(96) %34, i32 noundef %35)
  store ptr %36, ptr %9, align 8, !tbaa !108
  call void @llvm.lifetime.start.p0(i64 8, ptr %10) #3
  %37 = getelementptr inbounds nuw %"struct.cv::optflow::CenteredGradientBody", ptr %14, i32 0, i32 1
  %38 = load i32, ptr %6, align 4, !tbaa !55
  %39 = add nsw i32 %38, 1
  %40 = call noundef ptr @_ZNK2cv4Mat_IfEixEi(ptr noundef nonnull align 8 dereferenceable(96) %37, i32 noundef %39)
  store ptr %40, ptr %10, align 8, !tbaa !108
  call void @llvm.lifetime.start.p0(i64 8, ptr %11) #3
  %41 = getelementptr inbounds nuw %"struct.cv::optflow::CenteredGradientBody", ptr %14, i32 0, i32 2
  %42 = load i32, ptr %6, align 4, !tbaa !55
  %43 = call noundef ptr @_ZN2cv4Mat_IfEixEi(ptr noundef nonnull align 8 dereferenceable(96) %41, i32 noundef %42)
  store ptr %43, ptr %11, align 8, !tbaa !108
  call void @llvm.lifetime.start.p0(i64 8, ptr %12) #3
  %44 = getelementptr inbounds nuw %"struct.cv::optflow::CenteredGradientBody", ptr %14, i32 0, i32 3
  %45 = load i32, ptr %6, align 4, !tbaa !55
  %46 = call noundef ptr @_ZN2cv4Mat_IfEixEi(ptr noundef nonnull align 8 dereferenceable(96) %44, i32 noundef %45)
  store ptr %46, ptr %12, align 8, !tbaa !108
  call void @llvm.lifetime.start.p0(i64 4, ptr %13) #3
  store i32 1, ptr %13, align 4, !tbaa !55
  br label %47

47:                                               ; preds = %87, %29
  %48 = load i32, ptr %13, align 4, !tbaa !55
  %49 = load i32, ptr %5, align 4, !tbaa !55
  %50 = icmp slt i32 %48, %49
  br i1 %50, label %52, label %51

51:                                               ; preds = %47
  store i32 5, ptr %7, align 4
  call void @llvm.lifetime.end.p0(i64 4, ptr %13) #3
  br label %90

52:                                               ; preds = %47
  %53 = load ptr, ptr %9, align 8, !tbaa !108
  %54 = load i32, ptr %13, align 4, !tbaa !55
  %55 = add nsw i32 %54, 1
  %56 = sext i32 %55 to i64
  %57 = getelementptr inbounds float, ptr %53, i64 %56
  %58 = load float, ptr %57, align 4, !tbaa !91
  %59 = load ptr, ptr %9, align 8, !tbaa !108
  %60 = load i32, ptr %13, align 4, !tbaa !55
  %61 = sub nsw i32 %60, 1
  %62 = sext i32 %61 to i64
  %63 = getelementptr inbounds float, ptr %59, i64 %62
  %64 = load float, ptr %63, align 4, !tbaa !91
  %65 = fsub float %58, %64
  %66 = fmul float 5.000000e-01, %65
  %67 = load ptr, ptr %11, align 8, !tbaa !108
  %68 = load i32, ptr %13, align 4, !tbaa !55
  %69 = sext i32 %68 to i64
  %70 = getelementptr inbounds float, ptr %67, i64 %69
  store float %66, ptr %70, align 4, !tbaa !91
  %71 = load ptr, ptr %10, align 8, !tbaa !108
  %72 = load i32, ptr %13, align 4, !tbaa !55
  %73 = sext i32 %72 to i64
  %74 = getelementptr inbounds float, ptr %71, i64 %73
  %75 = load float, ptr %74, align 4, !tbaa !91
  %76 = load ptr, ptr %8, align 8, !tbaa !108
  %77 = load i32, ptr %13, align 4, !tbaa !55
  %78 = sext i32 %77 to i64
  %79 = getelementptr inbounds float, ptr %76, i64 %78
  %80 = load float, ptr %79, align 4, !tbaa !91
  %81 = fsub float %75, %80
  %82 = fmul float 5.000000e-01, %81
  %83 = load ptr, ptr %12, align 8, !tbaa !108
  %84 = load i32, ptr %13, align 4, !tbaa !55
  %85 = sext i32 %84 to i64
  %86 = getelementptr inbounds float, ptr %83, i64 %85
  store float %82, ptr %86, align 4, !tbaa !91
  br label %87

87:                                               ; preds = %52
  %88 = load i32, ptr %13, align 4, !tbaa !55
  %89 = add nsw i32 %88, 1
  store i32 %89, ptr %13, align 4, !tbaa !55
  br label %47, !llvm.loop !116

90:                                               ; preds = %51
  call void @llvm.lifetime.end.p0(i64 8, ptr %12) #3
  call void @llvm.lifetime.end.p0(i64 8, ptr %11) #3
  call void @llvm.lifetime.end.p0(i64 8, ptr %10) #3
  call void @llvm.lifetime.end.p0(i64 8, ptr %9) #3
  call void @llvm.lifetime.end.p0(i64 8, ptr %8) #3
  br label %91

91:                                               ; preds = %90
  %92 = load i32, ptr %6, align 4, !tbaa !55
  %93 = add nsw i32 %92, 1
  store i32 %93, ptr %6, align 4, !tbaa !55
  br label %22, !llvm.loop !117

94:                                               ; preds = %28
  call void @llvm.lifetime.end.p0(i64 4, ptr %5) #3
  ret void
}