; Function Attrs: mustprogress nofree norecurse nosync nounwind memory(readwrite, inaccessiblemem: none) uwtable
define hidden void @_ZNK2cv7optflow20CenteredGradientBodyclERKNS_5RangeE(ptr noundef nonnull readonly align 8 captures(none) dereferenceable(296) %0, ptr noundef nonnull readonly align 4 captures(none) dereferenceable(8) %1) unnamed_addr #7 align 2 {
  %3 = getelementptr inbounds nuw i8, ptr %0, i64 20
  %4 = load i32, ptr %3, align 4, !tbaa !71
  %5 = add i32 %4, -1
  %6 = load i32, ptr %1, align 4, !tbaa !95
  %7 = getelementptr inbounds nuw i8, ptr %1, i64 4
  %8 = load i32, ptr %7, align 4, !tbaa !97
  %9 = icmp slt i32 %6, %8
  br i1 %9, label %.lr.ph27, label %._crit_edge

.lr.ph27:                                         ; preds = %2
  %10 = getelementptr inbounds nuw i8, ptr %0, i64 24
  %11 = load ptr, ptr %10, align 8, !tbaa !98
  %12 = getelementptr inbounds nuw i8, ptr %0, i64 80
  %13 = load ptr, ptr %12, align 8, !tbaa !99
  %14 = load i64, ptr %13, align 8, !tbaa !100
  %15 = getelementptr inbounds nuw i8, ptr %0, i64 120
  %16 = load ptr, ptr %15, align 8, !tbaa !98
  %17 = getelementptr inbounds nuw i8, ptr %0, i64 176
  %18 = load ptr, ptr %17, align 8, !tbaa !99
  %19 = load i64, ptr %18, align 8, !tbaa !100
  %20 = getelementptr inbounds nuw i8, ptr %0, i64 216
  %21 = load ptr, ptr %20, align 8, !tbaa !98
  %22 = getelementptr inbounds nuw i8, ptr %0, i64 272
  %23 = load ptr, ptr %22, align 8, !tbaa !99
  %24 = load i64, ptr %23, align 8, !tbaa !100
  %25 = icmp sgt i32 %4, 2
  br i1 %25, label %.lr.ph.us.preheader, label %._crit_edge

.lr.ph.us.preheader:                              ; preds = %.lr.ph27
  %26 = sext i32 %6 to i64
  %wide.trip.count33 = sext i32 %8 to i64
  %wide.trip.count = zext i32 %5 to i64
  br label %.lr.ph.us

.lr.ph.us:                                        ; preds = %.lr.ph.us.preheader, %..loopexit_crit_edge.us
  %indvars.iv30 = phi i64 [ %26, %.lr.ph.us.preheader ], [ %indvars.iv.next31, %..loopexit_crit_edge.us ]
  %27 = add nsw i64 %indvars.iv30, -1
  %28 = mul i64 %14, %27
  %29 = getelementptr inbounds nuw i8, ptr %11, i64 %28
  %30 = mul i64 %14, %indvars.iv30
  %31 = getelementptr inbounds nuw i8, ptr %11, i64 %30
  %indvars.iv.next31 = add nsw i64 %indvars.iv30, 1
  %32 = mul i64 %14, %indvars.iv.next31
  %33 = getelementptr inbounds nuw i8, ptr %11, i64 %32
  %34 = mul i64 %19, %indvars.iv30
  %35 = getelementptr inbounds nuw i8, ptr %16, i64 %34
  %36 = mul i64 %24, %indvars.iv30
  %37 = getelementptr inbounds nuw i8, ptr %21, i64 %36
  %invariant.gep.us = getelementptr i8, ptr %31, i64 -4
  br label %38

38:                                               ; preds = %.lr.ph.us, %38
  %indvars.iv = phi i64 [ 1, %.lr.ph.us ], [ %indvars.iv.next, %38 ]
  %indvars.iv.next = add nuw nsw i64 %indvars.iv, 1
  %39 = getelementptr inbounds nuw float, ptr %31, i64 %indvars.iv.next
  %40 = load float, ptr %39, align 4, !tbaa !101
  %gep.us = getelementptr float, ptr %invariant.gep.us, i64 %indvars.iv
  %41 = load float, ptr %gep.us, align 4, !tbaa !101
  %42 = fsub float %40, %41
  %43 = fmul float %42, 5.000000e-01
  %44 = getelementptr inbounds nuw float, ptr %35, i64 %indvars.iv
  store float %43, ptr %44, align 4, !tbaa !101
  %45 = getelementptr inbounds nuw float, ptr %33, i64 %indvars.iv
  %46 = load float, ptr %45, align 4, !tbaa !101
  %47 = getelementptr inbounds nuw float, ptr %29, i64 %indvars.iv
  %48 = load float, ptr %47, align 4, !tbaa !101
  %49 = fsub float %46, %48
  %50 = fmul float %49, 5.000000e-01
  %51 = getelementptr inbounds nuw float, ptr %37, i64 %indvars.iv
  store float %50, ptr %51, align 4, !tbaa !101
  %exitcond.not = icmp eq i64 %indvars.iv.next, %wide.trip.count
  br i1 %exitcond.not, label %..loopexit_crit_edge.us, label %38, !llvm.loop !119

..loopexit_crit_edge.us:                          ; preds = %38
  %exitcond34.not = icmp eq i64 %indvars.iv.next31, %wide.trip.count33
  br i1 %exitcond34.not, label %._crit_edge, label %.lr.ph.us, !llvm.loop !120

._crit_edge:                                      ; preds = %..loopexit_crit_edge.us, %.lr.ph27, %2
  ret void
}